target datalayout = "e-m:e-p270:32:32-p271:32:32-p272:64:64-i64:64-i128:128-f80:128-n8:16:32:64-S128"
target triple = "x86_64-unknown-linux-gnu"

%class.symbol = type { ptr }
%class.parametric_cmd = type { %class.cmd, %class.symbol, ptr, %class.params_ref, %class.scoped_ptr.63 }
%class.cmd = type { ptr, %class.symbol, i32, i32 }
%class.params_ref = type { ptr }
%class.scoped_ptr.63 = type { ptr }

@_ZTV14parametric_cmd = external unnamed_addr constant { [32 x ptr] }, align 8

; Function Attrs: mustprogress nounwind uwtable
define linkonce_odr hidden void @_ZN3cmdD2Ev(ptr noundef nonnull align 8 dereferenceable(24) %this) unnamed_addr #5 comdat align 2 {
entry:
  %this.addr = alloca ptr, align 8
  store ptr %this, ptr %this.addr, align 8
  ret void
}

; Function Attrs: mustprogress nounwind uwtable
define linkonce_odr hidden void @_ZN10scoped_ptrI12param_descrsEC2EPS0_(ptr noundef nonnull align 8 dereferenceable(8) %this, ptr noundef %ptr) unnamed_addr #5 comdat align 2 {
entry:
  %this.addr = alloca ptr, align 8
  %ptr.addr = alloca ptr, align 8
  store ptr %this, ptr %this.addr, align 8
  store ptr %ptr, ptr %ptr.addr, align 8
  %this1 = load ptr, ptr %this.addr, align 8
  %m_ptr = getelementptr inbounds %class.scoped_ptr.63, ptr %this1, i32 0, i32 0
  %0 = load ptr, ptr %ptr.addr, align 8
  store ptr %0, ptr %m_ptr, align 8
  ret void
}

; Function Attrs: mustprogress nounwind uwtable
define linkonce_odr hidden void @_ZN10params_refC2Ev(ptr noundef nonnull align 8 dereferenceable(8) %this) unnamed_addr #5 comdat align 2 {
entry:
  %this.addr = alloca ptr, align 8
  store ptr %this, ptr %this.addr, align 8
  %this1 = load ptr, ptr %this.addr, align 8
  %m_params = getelementptr inbounds %class.params_ref, ptr %this1, i32 0, i32 0
  store ptr null, ptr %m_params, align 8
  ret void
}

; Function Attrs: mustprogress nounwind uwtable
define linkonce_odr hidden void @_ZN6symbolC2Ev(ptr noundef nonnull align 8 dereferenceable(8) %this) unnamed_addr #5 comdat align 2 {
entry:
  %this.addr = alloca ptr, align 8
  store ptr %this, ptr %this.addr, align 8
  %this1 = load ptr, ptr %this.addr, align 8
  %m_data = getelementptr inbounds %class.symbol, ptr %this1, i32 0, i32 0
  store ptr null, ptr %m_data, align 8
  ret void
}

; Function Attrs: mustprogress uwtable
define linkonce_odr hidden void @_ZN3cmdC2EPKc(ptr noundef nonnull align 8 dereferenceable(24) %this, ptr noundef %n) unnamed_addr #4 comdat align 2 {
entry:
  %this.addr = alloca ptr, align 8
  %n.addr = alloca ptr, align 8
  store ptr %this, ptr %this.addr, align 8
  store ptr %n, ptr %n.addr, align 8
  %this1 = load ptr, ptr %this.addr, align 8
  store ptr getelementptr inbounds ({ [30 x ptr] }, ptr @_ZTV3cmd, i32 0, i32 0, i32 2), ptr %this1, align 8
  %m_name = getelementptr inbounds %class.cmd, ptr %this1, i32 0, i32 1
  %0 = load ptr, ptr %n.addr, align 8
  call void @_ZN6symbolC1EPKc(ptr noundef nonnull align 8 dereferenceable(8) %m_name, ptr noundef %0)
  %m_line = getelementptr inbounds %class.cmd, ptr %this1, i32 0, i32 2
  store i32 0, ptr %m_line, align 8
  %m_pos = getelementptr inbounds %class.cmd, ptr %this1, i32 0, i32 3
  store i32 0, ptr %m_pos, align 4
  ret void
}

; Function Attrs: mustprogress uwtable
define linkonce_odr hidden void @_ZN14parametric_cmdC2EPKc(ptr noundef nonnull align 8 dereferenceable(56) %this, ptr noundef %name) unnamed_addr #4 comdat align 2 personality ptr @__gxx_personality_v0 {
entry:
  %this.addr = alloca ptr, align 8
  %name.addr = alloca ptr, align 8
  %exn.slot = alloca ptr, align 8
  %ehselector.slot = alloca i32, align 4
  store ptr %this, ptr %this.addr, align 8
  store ptr %name, ptr %name.addr, align 8
  %this1 = load ptr, ptr %this.addr, align 8
  %0 = load ptr, ptr %name.addr, align 8
  call void @_ZN3cmdC2EPKc(ptr noundef nonnull align 8 dereferenceable(24) %this1, ptr noundef %0)
  store ptr getelementptr inbounds ({ [32 x ptr] }, ptr @_ZTV14parametric_cmd, i32 0, i32 0, i32 2), ptr %this1, align 8
  %m_last = getelementptr inbounds %class.parametric_cmd, ptr %this1, i32 0, i32 1
  invoke void @_ZN6symbolC2Ev(ptr noundef nonnull align 8 dereferenceable(8) %m_last)
          to label %invoke.cont unwind label %lpad

invoke.cont:                                      ; preds = %entry
  %m_descr = getelementptr inbounds %class.parametric_cmd, ptr %this1, i32 0, i32 2
  store ptr null, ptr %m_descr, align 8
  %m_params = getelementptr inbounds %class.parametric_cmd, ptr %this1, i32 0, i32 3
  invoke void @_ZN10params_refC2Ev(ptr noundef nonnull align 8 dereferenceable(8) %m_params)
          to label %invoke.cont2 unwind label %lpad

invoke.cont2:                                     ; preds = %invoke.cont
  %m_pdescrs = getelementptr inbounds %class.parametric_cmd, ptr %this1, i32 0, i32 4
  invoke void @_ZN10scoped_ptrI12param_descrsEC2EPS0_(ptr noundef nonnull align 8 dereferenceable(8) %m_pdescrs, ptr noundef null)
          to label %invoke.cont4 unwind label %lpad3

invoke.cont4:                                     ; preds = %invoke.cont2
  ret void

lpad:                                             ; preds = %invoke.cont, %entry
  %1 = landingpad { ptr, i32 }
          cleanup
  %2 = extractvalue { ptr, i32 } %1, 0
  store ptr %2, ptr %exn.slot, align 8
  %3 = extractvalue { ptr, i32 } %1, 1
  store i32 %3, ptr %ehselector.slot, align 4
  br label %ehcleanup

lpad3:                                            ; preds = %invoke.cont2
  %4 = landingpad { ptr, i32 }
          cleanup
  %5 = extractvalue { ptr, i32 } %4, 0
  store ptr %5, ptr %exn.slot, align 8
  %6 = extractvalue { ptr, i32 } %4, 1
  store i32 %6, ptr %ehselector.slot, align 4
  call void @_ZN10params_refD1Ev(ptr noundef nonnull align 8 dereferenceable(8) %m_params) #3
  br label %ehcleanup

ehcleanup:                                        ; preds = %lpad3, %lpad
  call void @_ZN3cmdD2Ev(ptr noundef nonnull align 8 dereferenceable(24) %this1) #3
  br label %eh.resume

eh.resume:                                        ; preds = %ehcleanup
  %exn = load ptr, ptr %exn.slot, align 8
  %sel = load i32, ptr %ehselector.slot, align 4
  %lpad.val = insertvalue { ptr, i32 } poison, ptr %exn, 0
  %lpad.val5 = insertvalue { ptr, i32 } %lpad.val, i32 %sel, 1
  resume { ptr, i32 } %lpad.val5
}

; Function Attrs: mustprogress uwtable
define linkonce_odr hidden void @_ZN12simplify_cmdC2EPKc(ptr noundef nonnull align 8 dereferenceable(64) %this, ptr noundef %name) unnamed_addr #4 comdat align 2 {
entry:
  %this.addr = alloca ptr, align 8
  %name.addr = alloca ptr, align 8
  store ptr %this, ptr %this.addr, align 8
  store ptr %name, ptr %name.addr, align 8
  %this1 = load ptr, ptr %this.addr, align 8
  %0 = load ptr, ptr %name.addr, align 8
  call void @_ZN14parametric_cmdC2EPKc(ptr noundef nonnull align 8 dereferenceable(56) %this1, ptr noundef %0)
  store ptr getelementptr inbounds ({ [32 x ptr] }, ptr @_ZTV12simplify_cmd, i32 0, i32 0, i32 2), ptr %this1, align 8
  ret void
}

; Function Attrs: mustprogress uwtable
define hidden void @_Z20install_simplify_cmdR11cmd_contextPKc(ptr noundef nonnull align 8 dereferenceable(872) %ctx, ptr noundef %cmd_name) #4 {
entry:
  %ctx.addr = alloca ptr, align 8
  %cmd_name.addr = alloca ptr, align 8
  store ptr %ctx, ptr %ctx.addr, align 8
  store ptr %cmd_name, ptr %cmd_name.addr, align 8
  %0 = load ptr, ptr %ctx.addr, align 8
  %call = call noalias noundef ptr @_ZN6memory8allocateEm(i64 noundef 64)
  %1 = load ptr, ptr %cmd_name.addr, align 8
  call void @_ZN12simplify_cmdC2EPKc(ptr noundef nonnull align 8 dereferenceable(64) %call, ptr noundef %1)
  call void @_ZN11cmd_context6insertEP3cmd(ptr noundef nonnull align 8 dereferenceable(872) %0, ptr noundef %call)
  ret void
}