; Function Attrs: mustprogress uwtable
define hidden void @_Z20install_simplify_cmdR11cmd_contextPKc(ptr noundef nonnull align 8 dereferenceable(872) %ctx, ptr noundef %cmd_name) local_unnamed_addr #3 personality ptr @__gxx_personality_v0 {
entry:
  %call = tail call noalias noundef ptr @_ZN6memory8allocateEm(i64 noundef 64)
  store ptr getelementptr inbounds ({ [30 x ptr] }, ptr @_ZTV3cmd, i64 0, i32 0, i64 2), ptr %call, align 8
  %m_name.i.i.i = getelementptr inbounds i8, ptr %call, i64 8
  tail call void @_ZN6symbolC1EPKc(ptr noundef nonnull align 8 dereferenceable(8) %m_name.i.i.i, ptr noundef %cmd_name)
  %m_line.i.i.i = getelementptr inbounds i8, ptr %call, i64 16
  tail call void @llvm.memset.p0.i64(ptr noundef nonnull align 8 dereferenceable(40) %m_line.i.i.i, i8 0, i64 40, i1 false)
  store ptr getelementptr inbounds ({ [32 x ptr] }, ptr @_ZTV12simplify_cmd, i64 0, i32 0, i64 2), ptr %call, align 8
  tail call void @_ZN11cmd_context6insertEP3cmd(ptr noundef nonnull align 8 dereferenceable(872) %ctx, ptr noundef nonnull %call)
  ret void
}